; Function Attrs: mustprogress nofree norecurse nosync nounwind memory(argmem: readwrite) uwtable
define noundef double @_ZN2cv11RNG_MT19937cvdEv(ptr nocapture noundef nonnull align 4 dereferenceable(2500) %0) local_unnamed_addr #7 align 2 {
  %2 = tail call noundef i32 @_ZN2cv11RNG_MT199374nextEv(ptr noundef nonnull align 4 dereferenceable(2500) %0)
  %3 = lshr i32 %2, 5
  %4 = tail call noundef i32 @_ZN2cv11RNG_MT199374nextEv(ptr noundef nonnull align 4 dereferenceable(2500) %0)
  %5 = lshr i32 %4, 6
  %6 = uitofp nneg i32 %3 to double
  %7 = uitofp nneg i32 %5 to double
  %8 = tail call double @llvm.fmuladd.f64(double %6, double 0x4190000000000000, double %7)
  %9 = fmul double %8, 0x3CA0000000000000
  ret double %9
}